target datalayout = "e-m:e-p270:32:32-p271:32:32-p272:64:64-i64:64-i128:128-f80:128-n8:16:32:64-S128"
target triple = "x86_64-pc-linux-gnu"

%struct.ZSTD_customMem = type { ptr, ptr, ptr }
%struct.ZSTD_DCtx_s = type { ptr, ptr, ptr, ptr, %struct.ZSTD_entropyDTables_t, [640 x i32], ptr, ptr, ptr, ptr, i64, %struct.ZSTD_FrameHeader, i64, i64, i32, i32, i32, i32, %struct.XXH64_state_s, i64, i32, i32, i32, ptr, %struct.ZSTD_customMem, i64, i64, i64, i32, i32, ptr, ptr, i32, i32, i32, ptr, i32, i32, i32, i32, ptr, i64, i64, i64, ptr, i64, i64, i64, i64, ptr, i32, i32, i32, i32, i32, %struct.ZSTD_outBuffer_s, ptr, ptr, i32, [65568 x i8], [18 x i8], i64, i64 }
%struct.ZSTD_entropyDTables_t = type { [513 x %struct.ZSTD_seqSymbol], [257 x %struct.ZSTD_seqSymbol], [513 x %struct.ZSTD_seqSymbol], [4097 x i32], [3 x i32], [157 x i32] }
%struct.ZSTD_seqSymbol = type { i16, i8, i8, i32 }
%struct.ZSTD_FrameHeader = type { i64, i64, i32, i32, i32, i32, i32, i32, i32 }
%struct.XXH64_state_s = type { i64, [4 x i64], [4 x i64], i32, i32, i64 }
%struct.ZSTD_outBuffer_s = type { ptr, i64, i64 }

; Function Attrs: nounwind uwtable
define internal void @ZSTD_DCtx_resetParameters(ptr noundef %0) #0 {
  %2 = alloca ptr, align 8
  store ptr %0, ptr %2, align 8, !tbaa !3
  %3 = load ptr, ptr %2, align 8, !tbaa !3
  %4 = getelementptr inbounds nuw %struct.ZSTD_DCtx_s, ptr %3, i32 0, i32 20
  store i32 0, ptr %4, align 8, !tbaa !77
  %5 = load ptr, ptr %2, align 8, !tbaa !3
  %6 = getelementptr inbounds nuw %struct.ZSTD_DCtx_s, ptr %5, i32 0, i32 43
  store i64 134217729, ptr %6, align 8, !tbaa !122
  %7 = load ptr, ptr %2, align 8, !tbaa !3
  %8 = getelementptr inbounds nuw %struct.ZSTD_DCtx_s, ptr %7, i32 0, i32 54
  store i32 0, ptr %8, align 8, !tbaa !124
  %9 = load ptr, ptr %2, align 8, !tbaa !3
  %10 = getelementptr inbounds nuw %struct.ZSTD_DCtx_s, ptr %9, i32 0, i32 21
  store i32 0, ptr %10, align 4, !tbaa !95
  %11 = load ptr, ptr %2, align 8, !tbaa !3
  %12 = getelementptr inbounds nuw %struct.ZSTD_DCtx_s, ptr %11, i32 0, i32 36
  store i32 0, ptr %12, align 8, !tbaa !92
  %13 = load ptr, ptr %2, align 8, !tbaa !3
  %14 = getelementptr inbounds nuw %struct.ZSTD_DCtx_s, ptr %13, i32 0, i32 37
  store i32 0, ptr %14, align 4, !tbaa !125
  %15 = load ptr, ptr %2, align 8, !tbaa !3
  %16 = getelementptr inbounds nuw %struct.ZSTD_DCtx_s, ptr %15, i32 0, i32 38
  store i32 0, ptr %16, align 8, !tbaa !126
  ret void
}

; Function Attrs: nounwind uwtable
define internal void @ZSTD_clearDict(ptr noundef %0) #0 {
  %2 = alloca ptr, align 8
  store ptr %0, ptr %2, align 8, !tbaa !3
  %3 = load ptr, ptr %2, align 8, !tbaa !3
  %4 = getelementptr inbounds nuw %struct.ZSTD_DCtx_s, ptr %3, i32 0, i32 30
  %5 = load ptr, ptr %4, align 8, !tbaa !8
  %6 = call i64 @ZSTD_freeDDict(ptr noundef %5)
  %7 = load ptr, ptr %2, align 8, !tbaa !3
  %8 = getelementptr inbounds nuw %struct.ZSTD_DCtx_s, ptr %7, i32 0, i32 30
  store ptr null, ptr %8, align 8, !tbaa !8
  %9 = load ptr, ptr %2, align 8, !tbaa !3
  %10 = getelementptr inbounds nuw %struct.ZSTD_DCtx_s, ptr %9, i32 0, i32 31
  store ptr null, ptr %10, align 8, !tbaa !27
  %11 = load ptr, ptr %2, align 8, !tbaa !3
  %12 = getelementptr inbounds nuw %struct.ZSTD_DCtx_s, ptr %11, i32 0, i32 34
  store i32 0, ptr %12, align 8, !tbaa !30
  ret void
}

; Function Attrs: nounwind uwtable
define i64 @ZSTD_DCtx_reset(ptr noundef %0, i32 noundef %1) #0 {
  %3 = alloca i64, align 8
  %4 = alloca ptr, align 8
  %5 = alloca i32, align 4
  store ptr %0, ptr %4, align 8, !tbaa !3
  store i32 %1, ptr %5, align 4, !tbaa !43
  %6 = load i32, ptr %5, align 4, !tbaa !43
  %7 = icmp eq i32 %6, 1
  br i1 %7, label %11, label %8

8:                                                ; preds = %2
  %9 = load i32, ptr %5, align 4, !tbaa !43
  %10 = icmp eq i32 %9, 3
  br i1 %10, label %11, label %18

11:                                               ; preds = %8, %2
  %12 = load ptr, ptr %4, align 8, !tbaa !3
  %13 = getelementptr inbounds nuw %struct.ZSTD_DCtx_s, ptr %12, i32 0, i32 39
  store i32 0, ptr %13, align 4, !tbaa !31
  %14 = load ptr, ptr %4, align 8, !tbaa !3
  %15 = getelementptr inbounds nuw %struct.ZSTD_DCtx_s, ptr %14, i32 0, i32 53
  store i32 0, ptr %15, align 4, !tbaa !34
  %16 = load ptr, ptr %4, align 8, !tbaa !3
  %17 = getelementptr inbounds nuw %struct.ZSTD_DCtx_s, ptr %16, i32 0, i32 28
  store i32 1, ptr %17, align 8, !tbaa !36
  br label %18

18:                                               ; preds = %11, %8
  %19 = load i32, ptr %5, align 4, !tbaa !43
  %20 = icmp eq i32 %19, 2
  br i1 %20, label %24, label %21

21:                                               ; preds = %18
  %22 = load i32, ptr %5, align 4, !tbaa !43
  %23 = icmp eq i32 %22, 3
  br i1 %23, label %24, label %43

24:                                               ; preds = %21, %18
  br label %25

25:                                               ; preds = %24
  %26 = load ptr, ptr %4, align 8, !tbaa !3
  %27 = getelementptr inbounds nuw %struct.ZSTD_DCtx_s, ptr %26, i32 0, i32 39
  %28 = load i32, ptr %27, align 4, !tbaa !31
  %29 = icmp ne i32 %28, 0
  br i1 %29, label %30, label %39

30:                                               ; preds = %25
  br label %31

31:                                               ; preds = %30
  br label %32

32:                                               ; preds = %31
  br label %33

33:                                               ; preds = %32
  br label %34

34:                                               ; preds = %33
  br label %35

35:                                               ; preds = %34
  br label %36

36:                                               ; preds = %35
  br label %37

37:                                               ; preds = %36
  br label %38

38:                                               ; preds = %37
  store i64 -60, ptr %3, align 8
  br label %44

39:                                               ; preds = %25
  br label %40

40:                                               ; preds = %39
  %41 = load ptr, ptr %4, align 8, !tbaa !3
  call void @ZSTD_clearDict(ptr noundef %41)
  %42 = load ptr, ptr %4, align 8, !tbaa !3
  call void @ZSTD_DCtx_resetParameters(ptr noundef %42)
  br label %43

43:                                               ; preds = %40, %21
  store i64 0, ptr %3, align 8
  br label %44

44:                                               ; preds = %43, %38
  %45 = load i64, ptr %3, align 8
  ret i64 %45
}